target datalayout = "e-m:e-p270:32:32-p271:32:32-p272:64:64-i64:64-i128:128-f80:128-n8:16:32:64-S128"
target triple = "x86_64-pc-linux-gnu"

@hf_zbee_zcl_scenes_group_id = internal global i32 0, align 4
@hf_zbee_zcl_scenes_scene_id = internal global i32 0, align 4
@hf_zbee_zcl_scenes_transit_time = internal global i32 0, align 4
@hf_zbee_zcl_scenes_enh_transit_time = internal global i32 0, align 4
@hf_zbee_zcl_scenes_status = internal global i32 0, align 4
@hf_zbee_zcl_scenes_attr_str_len = internal global i32 0, align 4
@hf_zbee_zcl_scenes_attr_str = internal global i32 0, align 4
@.str.1256 = private unnamed_addr constant [13 x i8] c", String: %s\00", align 1

; Function Attrs: null_pointer_is_valid sspstrong uwtable
define internal void @dissect_zcl_scenes_view_scene_response(ptr noundef %0, ptr noundef %1, ptr noundef %2, i1 noundef zeroext %3) #0 {
  %5 = alloca ptr, align 8
  %6 = alloca ptr, align 8
  %7 = alloca ptr, align 8
  %8 = alloca i8, align 1
  %9 = alloca i8, align 1
  %10 = alloca ptr, align 8
  %11 = alloca i32, align 4
  store ptr %0, ptr %5, align 8
  store ptr %1, ptr %6, align 8
  store ptr %2, ptr %7, align 8
  %12 = zext i1 %3 to i8
  store i8 %12, ptr %8, align 1
  call void @llvm.lifetime.start.p0(i64 1, ptr %9) #7
  call void @llvm.lifetime.start.p0(i64 8, ptr %10) #7
  call void @llvm.lifetime.start.p0(i64 4, ptr %11) #7
  %13 = load ptr, ptr %5, align 8
  %14 = load ptr, ptr %7, align 8
  %15 = load i32, ptr %14, align 4
  %16 = call zeroext i8 @tvb_get_uint8(ptr noundef %13, i32 noundef %15)
  store i8 %16, ptr %9, align 1
  %17 = load ptr, ptr %6, align 8
  %18 = load i32, ptr @hf_zbee_zcl_scenes_status, align 4
  %19 = load ptr, ptr %5, align 8
  %20 = load ptr, ptr %7, align 8
  %21 = load i32, ptr %20, align 4
  %22 = call ptr @proto_tree_add_item(ptr noundef %17, i32 noundef %18, ptr noundef %19, i32 noundef %21, i32 noundef 1, i32 noundef -2147483648)
  %23 = load ptr, ptr %7, align 8
  %24 = load i32, ptr %23, align 4
  %25 = add i32 %24, 1
  store i32 %25, ptr %23, align 4
  %26 = load ptr, ptr %6, align 8
  %27 = load i32, ptr @hf_zbee_zcl_scenes_group_id, align 4
  %28 = load ptr, ptr %5, align 8
  %29 = load ptr, ptr %7, align 8
  %30 = load i32, ptr %29, align 4
  %31 = call ptr @proto_tree_add_item(ptr noundef %26, i32 noundef %27, ptr noundef %28, i32 noundef %30, i32 noundef 2, i32 noundef -2147483648)
  %32 = load ptr, ptr %7, align 8
  %33 = load i32, ptr %32, align 4
  %34 = add i32 %33, 2
  store i32 %34, ptr %32, align 4
  %35 = load ptr, ptr %6, align 8
  %36 = load i32, ptr @hf_zbee_zcl_scenes_scene_id, align 4
  %37 = load ptr, ptr %5, align 8
  %38 = load ptr, ptr %7, align 8
  %39 = load i32, ptr %38, align 4
  %40 = call ptr @proto_tree_add_item(ptr noundef %35, i32 noundef %36, ptr noundef %37, i32 noundef %39, i32 noundef 1, i32 noundef -2147483648)
  %41 = load ptr, ptr %7, align 8
  %42 = load i32, ptr %41, align 4
  %43 = add i32 %42, 1
  store i32 %43, ptr %41, align 4
  %44 = load i8, ptr %9, align 1
  %45 = zext i8 %44 to i32
  %46 = icmp eq i32 %45, 0
  br i1 %46, label %47, label %106

47:                                               ; preds = %4
  %48 = load ptr, ptr %6, align 8
  %49 = load i8, ptr %8, align 1, !range !6, !noundef !7
  %50 = trunc i8 %49 to i1
  br i1 %50, label %51, label %53

51:                                               ; preds = %47
  %52 = load i32, ptr @hf_zbee_zcl_scenes_enh_transit_time, align 4
  br label %55

53:                                               ; preds = %47
  %54 = load i32, ptr @hf_zbee_zcl_scenes_transit_time, align 4
  br label %55

55:                                               ; preds = %53, %51
  %56 = phi i32 [ %52, %51 ], [ %54, %53 ]
  %57 = load ptr, ptr %5, align 8
  %58 = load ptr, ptr %7, align 8
  %59 = load i32, ptr %58, align 4
  %60 = call ptr @proto_tree_add_item(ptr noundef %48, i32 noundef %56, ptr noundef %57, i32 noundef %59, i32 noundef 2, i32 noundef -2147483648)
  %61 = load ptr, ptr %7, align 8
  %62 = load i32, ptr %61, align 4
  %63 = add i32 %62, 2
  store i32 %63, ptr %61, align 4
  %64 = load ptr, ptr %5, align 8
  %65 = load ptr, ptr %7, align 8
  %66 = load i32, ptr %65, align 4
  %67 = call zeroext i8 @tvb_get_uint8(ptr noundef %64, i32 noundef %66)
  %68 = zext i8 %67 to i32
  store i32 %68, ptr %11, align 4
  %69 = load i32, ptr %11, align 4
  %70 = icmp eq i32 %69, 255
  br i1 %70, label %71, label %72

71:                                               ; preds = %55
  store i32 0, ptr %11, align 4
  br label %72

72:                                               ; preds = %71, %55
  %73 = load ptr, ptr %6, align 8
  %74 = load i32, ptr @hf_zbee_zcl_scenes_attr_str_len, align 4
  %75 = load ptr, ptr %5, align 8
  %76 = load ptr, ptr %7, align 8
  %77 = load i32, ptr %76, align 4
  %78 = load i32, ptr %11, align 4
  %79 = call ptr @proto_tree_add_uint(ptr noundef %73, i32 noundef %74, ptr noundef %75, i32 noundef %77, i32 noundef 1, i32 noundef %78)
  %80 = load ptr, ptr %7, align 8
  %81 = load i32, ptr %80, align 4
  %82 = add i32 %81, 1
  store i32 %82, ptr %80, align 4
  %83 = call ptr @wmem_packet_scope()
  %84 = load ptr, ptr %5, align 8
  %85 = load ptr, ptr %7, align 8
  %86 = load i32, ptr %85, align 4
  %87 = load i32, ptr %11, align 4
  %88 = call ptr @tvb_get_string_enc(ptr noundef %83, ptr noundef %84, i32 noundef %86, i32 noundef %87, i32 noundef 0)
  store ptr %88, ptr %10, align 8
  %89 = load ptr, ptr %6, align 8
  %90 = load ptr, ptr %10, align 8
  call void (ptr, ptr, ...) @proto_item_append_text(ptr noundef %89, ptr noundef @.str.1256, ptr noundef %90)
  %91 = load ptr, ptr %6, align 8
  %92 = load i32, ptr @hf_zbee_zcl_scenes_attr_str, align 4
  %93 = load ptr, ptr %5, align 8
  %94 = load ptr, ptr %7, align 8
  %95 = load i32, ptr %94, align 4
  %96 = load i32, ptr %11, align 4
  %97 = load ptr, ptr %10, align 8
  %98 = call ptr @proto_tree_add_string(ptr noundef %91, i32 noundef %92, ptr noundef %93, i32 noundef %95, i32 noundef %96, ptr noundef %97)
  %99 = load i32, ptr %11, align 4
  %100 = load ptr, ptr %7, align 8
  %101 = load i32, ptr %100, align 4
  %102 = add i32 %101, %99
  store i32 %102, ptr %100, align 4
  %103 = load ptr, ptr %5, align 8
  %104 = load ptr, ptr %6, align 8
  %105 = load ptr, ptr %7, align 8
  call void @dissect_zcl_scenes_extension_fields(ptr noundef %103, ptr noundef %104, ptr noundef %105)
  br label %106

106:                                              ; preds = %72, %4
  call void @llvm.lifetime.end.p0(i64 4, ptr %11) #7
  call void @llvm.lifetime.end.p0(i64 8, ptr %10) #7
  call void @llvm.lifetime.end.p0(i64 1, ptr %9) #7
  ret void
}