; Function Attrs: null_pointer_is_valid sspstrong uwtable
define internal fastcc void @dissect_zcl_scenes_view_scene_response(ptr noundef %0, ptr noundef %1, ptr noundef captures(none) %2, i1 noundef zeroext %3) unnamed_addr #0 {
  %5 = load i32, ptr %2, align 4
  %6 = tail call zeroext i8 @tvb_get_uint8(ptr noundef %0, i32 noundef %5)
  %7 = load i32, ptr @hf_zbee_zcl_scenes_status, align 4
  %8 = load i32, ptr %2, align 4
  %9 = tail call ptr @proto_tree_add_item(ptr noundef %1, i32 noundef %7, ptr noundef %0, i32 noundef %8, i32 noundef 1, i32 noundef -2147483648)
  %10 = load i32, ptr %2, align 4
  %11 = add i32 %10, 1
  store i32 %11, ptr %2, align 4
  %12 = load i32, ptr @hf_zbee_zcl_scenes_group_id, align 4
  %13 = tail call ptr @proto_tree_add_item(ptr noundef %1, i32 noundef %12, ptr noundef %0, i32 noundef %11, i32 noundef 2, i32 noundef -2147483648)
  %14 = load i32, ptr %2, align 4
  %15 = add i32 %14, 2
  store i32 %15, ptr %2, align 4
  %16 = load i32, ptr @hf_zbee_zcl_scenes_scene_id, align 4
  %17 = tail call ptr @proto_tree_add_item(ptr noundef %1, i32 noundef %16, ptr noundef %0, i32 noundef %15, i32 noundef 1, i32 noundef -2147483648)
  %18 = load i32, ptr %2, align 4
  %19 = add i32 %18, 1
  store i32 %19, ptr %2, align 4
  %20 = icmp eq i8 %6, 0
  br i1 %20, label %21, label %43

21:                                               ; preds = %4
  %22 = load i32, ptr @hf_zbee_zcl_scenes_enh_transit_time, align 4
  %23 = load i32, ptr @hf_zbee_zcl_scenes_transit_time, align 4
  %24 = select i1 %3, i32 %22, i32 %23
  %25 = tail call ptr @proto_tree_add_item(ptr noundef %1, i32 noundef %24, ptr noundef %0, i32 noundef %19, i32 noundef 2, i32 noundef -2147483648)
  %26 = load i32, ptr %2, align 4
  %27 = add i32 %26, 2
  store i32 %27, ptr %2, align 4
  %28 = tail call zeroext i8 @tvb_get_uint8(ptr noundef %0, i32 noundef %27)
  %29 = icmp eq i8 %28, -1
  %narrow = select i1 %29, i8 0, i8 %28
  %spec.store.select = zext i8 %narrow to i32
  %30 = load i32, ptr @hf_zbee_zcl_scenes_attr_str_len, align 4
  %31 = load i32, ptr %2, align 4
  %32 = tail call ptr @proto_tree_add_uint(ptr noundef %1, i32 noundef %30, ptr noundef %0, i32 noundef %31, i32 noundef 1, i32 noundef %spec.store.select)
  %33 = load i32, ptr %2, align 4
  %34 = add i32 %33, 1
  store i32 %34, ptr %2, align 4
  %35 = tail call ptr @wmem_packet_scope()
  %36 = load i32, ptr %2, align 4
  %37 = tail call ptr @tvb_get_string_enc(ptr noundef %35, ptr noundef %0, i32 noundef %36, i32 noundef %spec.store.select, i32 noundef 0)
  tail call void (ptr, ptr, ...) @proto_item_append_text(ptr noundef %1, ptr noundef nonnull @.str.1256, ptr noundef %37)
  %38 = load i32, ptr @hf_zbee_zcl_scenes_attr_str, align 4
  %39 = load i32, ptr %2, align 4
  %40 = tail call ptr @proto_tree_add_string(ptr noundef %1, i32 noundef %38, ptr noundef %0, i32 noundef %39, i32 noundef %spec.store.select, ptr noundef %37)
  %41 = load i32, ptr %2, align 4
  %42 = add i32 %41, %spec.store.select
  store i32 %42, ptr %2, align 4
  tail call fastcc void @dissect_zcl_scenes_extension_fields(ptr noundef %0, ptr noundef %1, ptr noundef %2)
  br label %43

43:                                               ; preds = %21, %4
  ret void
}